target datalayout = "e-m:e-p270:32:32-p271:32:32-p272:64:64-i64:64-i128:128-f80:128-n8:16:32:64-S128"
target triple = "x86_64-pc-linux-gnu"

@stderr = external global ptr, align 8
@.str.51 = private unnamed_addr constant [22 x i8] c"rb_obj_info_dump: %s\0A\00", align 1

; Function Attrs: nounwind sspstrong uwtable
define dso_local void @rb_obj_info_dump(i64 noundef %0) #0 {
  %2 = alloca i64, align 8
  %3 = alloca [256 x i8], align 16
  store i64 %0, ptr %2, align 8, !tbaa !18
  call void @llvm.lifetime.start.p0(i64 256, ptr %3) #6
  %4 = load ptr, ptr @stderr, align 8, !tbaa !438
  %5 = getelementptr inbounds [256 x i8], ptr %3, i64 0, i64 0
  %6 = load i64, ptr %2, align 8, !tbaa !18
  %7 = call ptr @rb_raw_obj_info(ptr noundef %5, i64 noundef 256, i64 noundef %6)
  %8 = call i32 (ptr, i32, ptr, ...) @__fprintf_chk(ptr noundef %4, i32 noundef 1, ptr noundef @.str.51, ptr noundef %7)
  call void @llvm.lifetime.end.p0(i64 256, ptr %3) #6
  ret void
}