; Function Attrs: nounwind sspstrong uwtable
define dso_local void @rb_obj_info_dump(i64 noundef %0) local_unnamed_addr #0 {
  %2 = alloca [256 x i8], align 16
  call void @llvm.lifetime.start.p0(i64 256, ptr nonnull %2) #7
  %3 = load ptr, ptr @stderr, align 8, !tbaa !465
  %4 = call ptr @rb_raw_obj_info(ptr noundef nonnull %2, i64 noundef 256, i64 noundef %0)
  %5 = call i32 (ptr, i32, ptr, ...) @__fprintf_chk(ptr noundef %3, i32 noundef 1, ptr noundef nonnull @.str.51, ptr noundef nonnull %2) #7
  call void @llvm.lifetime.end.p0(i64 256, ptr nonnull %2) #7
  ret void
}